
div.o:     file format pe-i386


Disassembly of section .text:

00000000 <_main>:
   0:	55                   	push   ebp
   1:	89 e5                	mov    ebp,esp
   3:	83 e4 f0             	and    esp,0xfffffff0
   6:	83 ec 20             	sub    esp,0x20
   9:	e8 00 00 00 00       	call   e <_main+0xe>
   e:	c7 04 24 00 00 00 00 	mov    DWORD PTR [esp],0x0
  15:	e8 00 00 00 00       	call   1a <_main+0x1a>
  1a:	8d 44 24 14          	lea    eax,[esp+0x14]
  1e:	89 44 24 08          	mov    DWORD PTR [esp+0x8],eax
  22:	8d 44 24 18          	lea    eax,[esp+0x18]
  26:	89 44 24 04          	mov    DWORD PTR [esp+0x4],eax
  2a:	c7 04 24 14 00 00 00 	mov    DWORD PTR [esp],0x14
  31:	e8 00 00 00 00       	call   36 <_main+0x36>
  36:	d9 44 24 14          	fld    DWORD PTR [esp+0x14]
  3a:	d9 ee                	fldz   
  3c:	dd e9                	fucomp st(1)
  3e:	df e0                	fnstsw ax
  40:	9e                   	sahf   
  41:	7a 0b                	jp     4e <_main+0x4e>
  43:	d9 ee                	fldz   
  45:	da e9                	fucompp 
  47:	df e0                	fnstsw ax
  49:	9e                   	sahf   
  4a:	74 28                	je     74 <_main+0x74>
  4c:	eb 02                	jmp    50 <_main+0x50>
  4e:	dd d8                	fstp   st(0)
  50:	d9 44 24 18          	fld    DWORD PTR [esp+0x18]
  54:	d9 44 24 14          	fld    DWORD PTR [esp+0x14]
  58:	de f9                	fdivrp st(1),st
  5a:	d9 5c 24 1c          	fstp   DWORD PTR [esp+0x1c]
  5e:	d9 44 24 1c          	fld    DWORD PTR [esp+0x1c]
  62:	dd 5c 24 04          	fstp   QWORD PTR [esp+0x4]
  66:	c7 04 24 1a 00 00 00 	mov    DWORD PTR [esp],0x1a
  6d:	e8 00 00 00 00       	call   72 <_main+0x72>
  72:	eb 0c                	jmp    80 <_main+0x80>
  74:	c7 04 24 2c 00 00 00 	mov    DWORD PTR [esp],0x2c
  7b:	e8 00 00 00 00       	call   80 <_main+0x80>
  80:	b8 00 00 00 00       	mov    eax,0x0
  85:	c9                   	leave  
  86:	c3                   	ret    
  87:	90                   	nop
